target datalayout = "e-m:e-p270:32:32-p271:32:32-p272:64:64-i64:64-i128:128-f80:128-n8:16:32:64-S128"
target triple = "x86_64-pc-linux-gnu"

%"union.icu_77::Transliterator::Token" = type { ptr }

@_ZN6icu_77L9SPEC_JavaE = internal constant [8 x i16] [i16 2, i16 0, i16 16, i16 4, i16 4, i16 92, i16 117, i16 -1], align 16
@_ZN6icu_7722UnescapeTransliteratorC1ERKNS_13UnicodeStringEPKDs = unnamed_addr alias void (ptr, ptr, ptr), ptr @_ZN6icu_7722UnescapeTransliteratorC2ERKNS_13UnicodeStringEPKDs

; Function Attrs: mustprogress uwtable
define internal noundef ptr @_ZN6icu_77L11_createJavaERKNS_13UnicodeStringENS_14Transliterator5TokenE(ptr noundef nonnull align 8 dereferenceable(64) %0, ptr %1) #1 personality ptr @__gxx_personality_v0 {
  %3 = alloca %"union.icu_77::Transliterator::Token", align 8
  %4 = alloca ptr, align 8
  %5 = alloca i1, align 1
  %6 = alloca ptr, align 8
  %7 = alloca i32, align 4
  %8 = getelementptr inbounds nuw %"union.icu_77::Transliterator::Token", ptr %3, i32 0, i32 0
  store ptr %1, ptr %8, align 8
  store ptr %0, ptr %4, align 8, !tbaa !33
  %9 = call noundef ptr @_ZN6icu_777UMemorynwEm(i64 noundef 96) #10
  %10 = icmp eq ptr %9, null
  store i1 false, ptr %5, align 1
  br i1 %10, label %14, label %11

11:                                               ; preds = %2
  store i1 true, ptr %5, align 1
  %12 = load ptr, ptr %4, align 8, !tbaa !33
  invoke void @_ZN6icu_7722UnescapeTransliteratorC1ERKNS_13UnicodeStringEPKDs(ptr noundef nonnull align 8 dereferenceable(96) %9, ptr noundef nonnull align 8 dereferenceable(64) %12, ptr noundef @_ZN6icu_77L9SPEC_JavaE)
          to label %13 unwind label %16

13:                                               ; preds = %11
  br label %14

14:                                               ; preds = %13, %2
  %15 = phi ptr [ %9, %13 ], [ null, %2 ]
  ret ptr %15

16:                                               ; preds = %11
  %17 = landingpad { ptr, i32 }
          cleanup
  %18 = extractvalue { ptr, i32 } %17, 0
  store ptr %18, ptr %6, align 8
  %19 = extractvalue { ptr, i32 } %17, 1
  store i32 %19, ptr %7, align 4
  %20 = load i1, ptr %5, align 1
  br i1 %20, label %21, label %22

21:                                               ; preds = %16
  call void @_ZN6icu_777UMemorydlEPv(ptr noundef %9) #10
  br label %22

22:                                               ; preds = %21, %16
  br label %23

23:                                               ; preds = %22
  %24 = load ptr, ptr %6, align 8
  %25 = load i32, ptr %7, align 4
  %26 = insertvalue { ptr, i32 } poison, ptr %24, 0
  %27 = insertvalue { ptr, i32 } %26, i32 %25, 1
  resume { ptr, i32 } %27
}